(lp0
(lp1
VATT_Inc
p2
aVAlcoa_Inc
p3
acnumpy.core.multiarray
scalar
p4
(cnumpy
dtype
p5
(S'f8'
p6
I0
I1
tp7
Rp8
(I3
S'<'
p9
NNNI-1
I-1
I0
tp10
bS'\xc8\x0cS\x84\x1e5\xe4?'
p11
tp12
Rp13
aF-0.3118897250853976
aF26.332256661274663
aa(lp14
g2
aVAmerican_Express_Company
p15
ag4
(g8
S'@\xe5\xc7\xde\x9f\x85\xe2?'
p16
tp17
Rp18
aF1.3498739900040908
aF11.48738817856109
aa(lp19
g2
aVBank_of_America_Corporation
p20
ag4
(g8
S'\xc1\xef\xff\xbf4!\xe7?'
p21
tp22
Rp23
aF-0.7858130683601775
aF42.90228468422138
aa(lp24
g2
aVCaterpillar_Inc
p25
ag4
(g8
S'\x9e\x0c}\xd7\x80\xb1\xd0?'
p26
tp27
Rp28
aF2.642216780702038
aF0.3857612420321743
aa(lp29
g2
aVChevron_Corporation
p30
ag4
(g8
S'\x08\x88\xaf\x06\xf3\x8f\xbf?'
p31
tp32
Rp33
aF3.4030729153490458
aF-9.61138888275049
aa(lp34
g2
aVCisco_Systems_Inc
p35
ag4
(g8
S'L\x8b2\x012i\xc7?'
p36
tp37
Rp38
aF0.18496749735728846
aF15.791785573156215
aa(lp39
g2
aVE_I_du_Pont_de_Nemours_and_Company
p40
ag4
(g8
S'\xfe4\xf2;\xd0\x90\xc4?'
p41
tp42
Rp43
aF1.1050049501304435
aF10.491859828096231
aa(lp44
g2
aVExxon_Mobil_Corporation
p45
ag4
(g8
S'\x9e\x8d\xd5O\x0ffM?'
p46
tp47
Rp48
aF2.0072743309804957
aF19.24546862610437
aa(lp49
g2
aVGeneral_Electric_Company
p50
ag4
(g8
S'\xd1`\x16\xf5A\x06\xe2?'
p51
tp52
Rp53
aF0.10160746381663377
aF18.71741531032184
aa(lp54
g2
aVHewlettPackard_Company
p55
ag4
(g8
S'B\xa5\x0e7[\xb2\xd0?'
p56
tp57
Rp58
aF-0.19697972576117873
aF37.79679177536022
aa(lp59
g2
aVIntel_Corporation
p60
ag4
(g8
S'$Qk5X\x11\xbb?'
p61
tp62
Rp63
aF0.3241992838986807
aF11.133361029528508
aa(lp64
g2
aVInternational_Business_Machines_Corporation
p65
ag4
(g8
S'*\xb9\x00\x94\xb8\x96\xdc?'
p66
tp67
Rp68
aF6.130229395229399
aF-28.36390110293894
aa(lp69
g2
aVJPMorgan_Chase__Co
p70
ag4
(g8
S'\x97\x17,\x0c\xd69\x96?'
p71
tp72
Rp73
aF0.6891422617511218
aF20.11561101401044
aa(lp74
g2
aVJohnson__Johnson
p75
ag4
(g8
S'l\xc4m\x1ev \xee?'
p76
tp77
Rp78
aF1.1119680299756927
aF29.183058759391642
aa(lp79
g2
aVMcDonalds_Corp
p80
ag4
(g8
S'\x1f\x84\x1aX\x0f\x00\xe5?'
p81
tp82
Rp83
aF3.074698079260116
aF-18.73244706797051
aa(lp84
g2
aVMerck__Co_Inc
p85
ag4
(g8
S'\xdb:}\xba\xf1\xa7k?'
p86
tp87
Rp88
aF1.1515108022459668
aF3.4987407762944684
aa(lp89
g2
aVMicrosoft_Corporation
p90
ag4
(g8
S'\xebv%U\xbd\xed\xa6?'
p91
tp92
Rp93
aF0.4751780919107511
aF13.008522876109083
aa(lp94
g2
aVPfizer_Inc
p95
ag4
(g8
S'.7~O\xdd\xf7\xde?'
p96
tp97
Rp98
aF0.4514372266401394
aF7.147137410087481
aa(lp99
g2
aVProcter__Gamble_Co
p100
ag4
(g8
S't\xa5C\x04\xb2\x1d\xbe?'
p101
tp102
Rp103
aF1.293317539696626
aF24.083069762053967
aa(lp104
g2
aVThe_Boeing_Company
p105
ag4
(g8
S'\xf2\xf1\xe2\xbc\xf2\xc0\xd2?'
p106
tp107
Rp108
aF1.7893880122852934
aF20.23288063740337
aa(lp109
g2
aVThe_CocaCola_Company
p110
ag4
(g8
S'\x1b\x15z=i\x0b\xdf?'
p111
tp112
Rp113
aF1.0636666542881223
aF-0.613785043985267
aa(lp114
g2
aVThe_Home_Depot_Inc
p115
ag4
(g8
S'\xd4\x96\x11,\x99\x08\xef?'
p116
tp117
Rp118
aF1.543462519469176
aF-3.541928148143043
aa(lp119
g2
aVThe_Travelers_Companies_Inc
p120
ag4
(g8
S'k\xb9\x99uAX\xe1?'
p121
tp122
Rp123
aF1.8947596333378007
aF0.7729219201030304
aa(lp124
g2
aVThe_Walt_Disney_Company
p125
ag4
(g8
S'PI\xd0\xa9\xef\t\xea?'
p126
tp127
Rp128
aF1.5065678568750855
aF-4.065255202052683
aa(lp129
g2
aVUnitedHealth_Group_Incorporated
p130
ag4
(g8
S'\xd1\x8a\xd4H\xbf\xb4\xe2?'
p131
tp132
Rp133
aF0.8768295442702665
aF21.328345416438154
aa(lp134
g2
aVUnited_Technologies_Corp
p135
ag4
(g8
S'&\xfb\xaa\t\x8e\x04\xc9?'
p136
tp137
Rp138
aF2.0839974165785393
aF11.47518825488892
aa(lp139
g2
aVVerizon_Communications_Inc
p140
ag4
(g8
S'\xef\xa4(\x0b+\xe6\xd9?'
p141
tp142
Rp143
aF1.2079883440711146
aF-0.2825667389987103
aa(lp144
g2
aVWalMart_Stores_Inc
p145
ag4
(g8
S'<^5<jL\xe7?'
p146
tp147
Rp148
aF1.3311172435676508
aF17.0264124351485
aa(lp149
g3
ag15
ag4
(g8
S'\xb4\x81M\xc1$\xcf\xee?'
p150
tp151
Rp152
aF0.15298532206708093
aF41.600646789832375
aa(lp153
g3
ag20
ag4
(g8
S'\xec\x9a\xc4\xee2\xa2\xb4?'
p154
tp155
Rp156
aF1.360772058869849
aF-1.7586142495030987
aa(lp157
g3
ag25
ag4
(g8
S'\xdfi\x08J\xed\xa0\xdb?'
p158
tp159
Rp160
aF-0.49843151891542936
aF74.25970524248679
aa(lp161
g3
ag30
ag4
(g8
S'\xf9\x19W%\xea\xac\xe4?'
p162
tp163
Rp164
aF-1.1338805835727097
aF94.74073997115272
aa(lp165
g3
ag35
ag4
(g8
S'\x10Q\xd8\xf5\xf8\xd3\xca?'
p166
tp167
Rp168
aF0.21269104051537313
aF16.3302503545019
aa(lp169
g3
ag40
ag4
(g8
S'ZG)\xd8\xf5\xdb\xe5?'
p170
tp171
Rp172
aF-0.10315854036712668
aF39.41645509935254
aa(lp173
g3
ag45
ag4
(g8
S"\x1f\xd1!\xae'\xe9\xda?"
p174
tp175
Rp176
aF-0.3393675533198848
aF74.63181612775462
aa(lp177
g3
ag50
ag4
(g8
S'\xcb+\x87\xd2\x13\x8f\xe0?'
p178
tp179
Rp180
aF0.5414004125342975
aF11.068305871071662
aa(lp181
g3
ag55
ag4
(g8
S'\x83\xc0+\xc7\n-\xd4?'
p182
tp183
Rp184
aF0.37425141425304065
aF25.98136798158805
aa(lp185
g3
ag60
ag4
(g8
S'\xc6\xe6/\xaf\x1dq\xcc?'
p186
tp187
Rp188
aF-0.04435437595220426
aF19.883237082639866
aa(lp189
g3
ag65
ag4
(g8
S'<\xcd\x1e\xee]\x06\xe1?'
p190
tp191
Rp192
aF-2.8881600906918257
aF175.43797215826203
aa(lp193
g3
ag70
ag4
(g8
S'Zc.\xc1$8\xd7?'
p194
tp195
Rp196
aF0.03904796219449724
aF36.219967301642626
aa(lp197
g3
ag75
ag4
(g8
S'7.x\x92T\xf6\xee?'
p198
tp199
Rp200
aF-0.3876725969676107
aF63.60189484041488
aa(lp201
g3
ag80
ag4
(g8
S']\x0f\x9c\xf8j{\xe2?'
p202
tp203
Rp204
aF-1.7007286062996751
aF88.20529198399359
aa(lp205
g3
ag85
ag4
(g8
S'^@\xfb\x00-\xae\xe6?'
p206
tp207
Rp208
aF-0.036200661931300004
aF32.3064386784913
aa(lp209
g3
ag90
ag4
(g8
S'._\xdb\xce\x16\x15\xdb?'
p210
tp211
Rp212
aF-0.020295555156986556
aF24.99644696906633
aa(lp213
g3
ag95
ag4
(g8
S'"x\xf8\xc2T\x1a\xee?'
p214
tp215
Rp216
aF-0.0325359356718834
aF18.784151067498385
aa(lp217
g3
ag100
ag4
(g8
S'\xeb=\x91*\xf6\x85\xeb?'
p218
tp219
Rp220
aF-0.3246460309252417
aF61.75267285655424
aa(lp221
g3
ag105
ag4
(g8
S'\xb0\xa5pu/c\xea?'
p222
tp223
Rp224
aF0.4037493212995762
aF56.39046113371947
aa(lp225
g3
ag110
ag4
(g8
S'H\xb3\x92\xa8\xef\xf0\xe7?'
p226
tp227
Rp228
aF-0.41467550472423265
aF33.13040422559281
aa(lp229
g3
ag115
ag4
(g8
S'\n\x98j$\xa6\xc4\xef?'
p230
tp231
Rp232
aF-0.5345714621866791
aF44.16682502127022
aa(lp233
g3
ag120
ag4
(g8
S'\x0e\xd8\xe1\xfa\xbfR\xec?'
p234
tp235
Rp236
aF-0.6594340162539389
aF59.40008184961355
aa(lp237
g3
ag125
ag4
(g8
S'\xa0f\xfd\x87m\x1f\xef?'
p238
tp239
Rp240
aF-0.4036978001528162
aF40.29314604140485
aa(lp241
g3
ag130
ag4
(g8
S'L\x8a\x94\x8b\xf5\xd3\xeb?'
p242
tp243
Rp244
aF0.18915856226200756
aF39.208682114411914
aa(lp245
g3
ag135
ag4
(g8
S'\xc1\x93^\n\xb4\xaa\xe6?'
p246
tp247
Rp248
aF-0.525758634948053
aF72.22375966794999
aa(lp249
g3
ag140
ag4
(g8
S'\xa0h\x04\x94\xbcc\xed?'
p250
tp251
Rp252
aF-0.3229241337682407
aF35.27030637015212
aa(lp253
g3
ag145
ag4
(g8
S'\x9c\xff\x00-\xb4\x91\xe6?'
p254
tp255
Rp256
aF-0.6611379208196404
aF61.91623093058272
aa(lp257
g15
ag20
ag4
(g8
S'\xb6\xa6\xe5\t\x94\xc3\xeb?'
p258
tp259
Rp260
aF0.17065981418526743
aF16.117519124410695
aa(lp261
g15
ag25
ag4
(g8
S'W(\x9eUl\xbe\xd7?'
p262
tp263
Rp264
aF1.190364092918458
aF12.004781433443107
aa(lp265
g15
ag30
ag4
(g8
S'\x92\xf2BZ\xaf\\\xe2?'
p266
tp267
Rp268
aF1.0307134831729259
aF27.693216132453948
aa(lp269
g15
ag35
ag4
(g8
S'\x94Z\xe3a\x9b\xc1\xca?'
p270
tp271
Rp272
aF0.10211984558754711
aF15.76975547969392
aa(lp273
g15
ag40
ag4
(g8
S'B\xdaU\xd7\x1f\x82\xc9?'
p274
tp275
Rp276
aF0.5789424762846727
aF11.744244106958899
aa(lp277
g15
ag45
ag4
(g8
S'L"\xf4Y\x9d+\xc7?'
p278
tp279
Rp280
aF0.5122294852057312
aF45.5056940346499
aa(lp281
g15
ag50
ag4
(g8
S'@\xcc\xdf\x0cI\x9b\xe6?'
p282
tp283
Rp284
aF0.28301614583730395
aF8.615703600412724
aa(lp285
g15
ag55
ag4
(g8
S'2d?w\xe6\x06\xc6?'
p286
tp287
Rp288
aF-0.2573784853373615
aF44.42871383438083
aa(lp289
g15
ag60
ag4
(g8
S'y\xec\xdbm\x96h\xb1?'
p290
tp291
Rp292
aF0.20244629067073108
aF10.051763429673791
aa(lp293
g15
ag65
ag4
(g8
S'\xa8\x9ay\xa1K\x1a\xe6?'
p294
tp295
Rp296
aF1.991252433799029
aF32.85354179648425
aa(lp297
g15
ag70
ag4
(g8
S'D\x86\xbc\x8em\xb7\x92?'
p298
tp299
Rp300
aF0.34985913796897217
aF21.394722209045234
aa(lp301
g15
ag75
ag4
(g8
S'\x0e\xad"\xd0\x93\x87\xed?'
p302
tp303
Rp304
aF0.4622814100669439
aF35.79270074546043
aa(lp305
g15
ag80
ag4
(g8
S'>\x1f\x90\xcbg/\xe7?'
p306
tp307
Rp308
aF0.7730189757565697
aF22.008278704331133
aa(lp309
g15
ag85
ag4
(g8
S'\x89~\xbd\xa5\xb5\x89\xb1?'
p310
tp311
Rp312
aF0.46659925965136506
aF10.882387022854168
aa(lp313
g15
ag90
ag4
(g8
S'j\xb7J\xf7V)\x9f?'
p314
tp315
Rp316
aF0.24422859917677975
aF13.757401725078534
aa(lp317
g15
ag95
ag4
(g8
S'\x9a\xb4F>D \x94?'
p318
tp319
Rp320
aF0.28469425814824234
aF5.516806507721785
aa(lp321
g15
ag100
ag4
(g8
S'`\x80\xbc\xcd\x91G\xd7?'
p322
tp323
Rp324
aF0.45410993175535375
aF35.48623344995804
aa(lp325
g15
ag105
ag4
(g8
S'\xdb\xe7\xca\xe2\x8e\xcfq?'
p326
tp327
Rp328
aF1.0950989302992138
aF15.253956806790683
aa(lp329
g15
ag110
ag4
(g8
S'n\x19\xaf\x14>\xc9\xe0?'
p330
tp331
Rp332
aF0.3450566852740848
aF10.028120815178237
aa(lp333
g15
ag115
ag4
(g8
S'\xac\x1cRR\x95\x12\xe7?'
p334
tp335
Rp336
aF0.8846804183686906
aF-5.172630317690185
aa(lp337
g15
ag120
ag4
(g8
S'"^\xb0\n4\x99\xe0?'
p338
tp339
Rp340
aF0.7439570052537503
aF13.981113336139039
aa(lp341
g15
ag125
ag4
(g8
S's\xc8O\xf6\xa8\xc5\xe3?'
p342
tp343
Rp344
aF0.6613106182105264
aF3.3345402698064674
aa(lp345
g15
ag130
ag4
(g8
S'\x0f\xae\x19-0`\x91?'
p346
tp347
Rp348
aF0.8477195276457687
aF5.055867905400227
aa(lp349
g15
ag135
ag4
(g8
S'\xe1\n\x14\xca4@\xd8?'
p350
tp351
Rp352
aF0.8212528692309381
aF25.86942895943308
aa(lp353
g15
ag140
ag4
(g8
S'\x1e\xf3M\xdf\x96\xc7\xe3?'
p354
tp355
Rp356
aF0.4410162913206677
aF9.618277765453815
aa(lp357
g15
ag145
ag4
(g8
S'$\x13\x9e\xc0\xe9\xa1\xea?'
p358
tp359
Rp360
aF0.40870177461508195
aF31.371990062757604
aa(lp361
g20
ag25
ag4
(g8
S'\xa7mT\xe7f\xcb\xd7?'
p362
tp363
Rp364
aF-0.5926228569673251
aF78.9810156658695
aa(lp365
g20
ag30
ag4
(g8
S'O\x80\xd8`jW\xea?'
p366
tp367
Rp368
aF-0.9965000610022134
aF97.14499999222932
aa(lp369
g20
ag35
ag4
(g8
S'\xfc\x88\x03\r\xce\x88\xcc?'
p370
tp371
Rp372
aF0.13131355730406036
aF17.197485877208525
aa(lp373
g20
ag40
ag4
(g8
S'\xe6\xb6UfY\x94\xe4?'
p374
tp375
Rp376
aF-0.14730913118504507
aF40.978097511914065
aa(lp377
g20
ag45
ag4
(g8
S'a\xf1\x17\xd9\r:\xe0?'
p378
tp379
Rp380
aF-0.3883659997011377
aF77.4876651509395
aa(lp381
g20
ag50
ag4
(g8
S'l\xe9\x88\xb0\xe3\xe2\xe0?'
p382
tp383
Rp384
aF0.36987761898775184
aF12.431396740921247
aa(lp385
g20
ag55
ag4
(g8
S'\x90/-\x86\xbd\xcf\xd1?'
p386
tp387
Rp388
aF0.15460316262005935
aF29.319803559263878
aa(lp389
g20
ag60
ag4
(g8
S'\xe6G\x16\xd1\xf1t\xca?'
p390
tp391
Rp392
aF-0.05301530053288478
aF20.309991301773103
aa(lp393
g20
ag65
ag4
(g8
S'p\xb1S/E \xe5?'
p394
tp395
Rp396
aF-2.3002355236377703
aF175.92012005306066
aa(lp397
g20
ag70
ag4
(g8
S'}\x90\xec\x13J\x0c\xd7?'
p398
tp399
Rp400
aF0.02336555358626724
aF36.39678009365435
aa(lp401
g20
ag75
ag4
(g8
S'ak\xc1%e\xb4\xef?'
p402
tp403
Rp404
aF-0.27460785662441234
aF62.85709634515899
aa(lp405
g20
ag80
ag4
(g8
S'~\x19q\x13\xad\xb1\xe9?'
p406
tp407
Rp408
aF-1.3246973170469794
aF87.78219749112552
aa(lp409
g20
ag85
ag4
(g8
S'N\x1f\x04\xb566\xe6?'
p410
tp411
Rp412
aF-0.06263722345483325
aF33.11386806873521
aa(lp413
g20
ag90
ag4
(g8
S'\xbe\xc40\xc4\x87,\xd9?'
p414
tp415
Rp416
aF-0.0336033012832363
aF25.413242262785275
aa(lp417
g20
ag95
ag4
(g8
S'vF\xff\xda\x1c\x80\xee?'
p418
tp419
Rp420
aF-0.0032572392507523307
aF18.25251785530327
aa(lp421
g20
ag100
ag4
(g8
S'<\xc8\xf2p\x15\xc1\xe8?'
p422
tp423
Rp424
aF-0.2691906641093089
aF62.05887866056908
aa(lp425
g20
ag105
ag4
(g8
S'\x92\xa2\x108\x1d\x94\xe8?'
p426
tp427
Rp428
aF0.20953359749515665
aF58.978732421936236
aa(lp429
g20
ag110
ag4
(g8
S'0\x07jH6\t\xec?'
p430
tp431
Rp432
aF-0.3356749787052457
aF33.32793333303189
aa(lp433
g20
ag115
ag4
(g8
S'ki]u\x0f\xe5\xef?'
p434
tp435
Rp436
aF-0.29106664979271035
aF41.06325990194907
aa(lp437
g20
ag120
ag4
(g8
S'\xa2\x8dV<\xf6\xf5\xee?'
p438
tp439
Rp440
aF-0.47204406458763415
aF58.2501382608587
aa(lp441
g20
ag125
ag4
(g8
S'\xe9\xf6\xd7\xa5vx\xef?'
p442
tp443
Rp444
aF-0.2995415846561905
aF39.83953650882423
aa(lp445
g20
ag130
ag4
(g8
S'\t\xbf<\xf1\x87\xd4\xeb?'
p446
tp447
Rp448
aF0.18132550101921985
aF38.449986527488306
aa(lp449
g20
ag135
ag4
(g8
S'\xfd\x84\xca\xcd\xac\xc8\xe7?'
p450
tp451
Rp452
aF-0.4777136793690031
aF73.7096985858515
aa(lp453
g20
ag140
ag4
(g8
S'C\x1dZT\xf9\x0e\xef?'
p454
tp455
Rp456
aF-0.2574026395092506
aF35.3292914473249
aa(lp457
g20
ag145
ag4
(g8
S'\xea1\xa9\xc2\xb2\x99\xec?'
p458
tp459
Rp460
aF-0.47370073445270944
aF60.77367443956815
aa(lp461
g25
ag30
ag4
(g8
S'\x06\xc2\x93\xecI\x14\xe4?'
p462
tp463
Rp464
aF0.880881998104774
aF16.324444097376784
aa(lp465
g25
ag35
ag4
(g8
S'\x16I\xc1\x89\x13\xa9\xd0?'
p466
tp467
Rp468
aF-0.0011680861169753864
aF20.386205567038086
aa(lp469
g25
ag40
ag4
(g8
S'\x98\x96\xbd\xd8n~\xc0?'
p470
tp471
Rp472
aF0.3637634878434153
aF13.86596392558306
aa(lp473
g25
ag45
ag4
(g8
S'c\xbeS\x99\xc4d\xd8?'
p474
tp475
Rp476
aF0.42564416000702154
aF40.64305518208573
aa(lp477
g25
ag50
ag4
(g8
S'\xbd\x7f>@b\xc7\xe2?'
p478
tp479
Rp480
aF0.0004036594463864285
aF21.173374655106137
aa(lp481
g25
ag55
ag4
(g8
S'*\x85b!\xfe\xbc\xcd?'
p482
tp483
Rp484
aF-0.06968830187475039
aF37.509807816805875
aa(lp485
g25
ag60
ag4
(g8
S'\xd4\x1a\xec\x9d\x96\x9c\xb7?'
p486
tp487
Rp488
aF0.10950933965058157
aF11.942513301442386
aa(lp489
g25
ag65
ag4
(g8
S'P\r\xa8#\xe5\xe5\xd9?'
p490
tp491
Rp492
aF1.7571295431081662
aF7.296720724541359
aa(lp493
g25
ag70
ag4
(g8
S'\xc4\x05Z\xf4\x98\xc1\xd1?'
p494
tp495
Rp496
aF0.15710741529311112
aF26.749297334014436
aa(lp497
g25
ag75
ag4
(g8
S'&\xbeM\x80&s\xef?'
p498
tp499
Rp500
aF0.2556780380887367
aF39.745523240465474
aa(lp501
g25
ag80
ag4
(g8
S'\xe5\xb5\xa2\xe2<\xa3\xe4?'
p502
tp503
Rp504
aF0.8516942362535633
aF1.0767476133128753
aa(lp505
g25
ag85
ag4
(g8
S'\xa3\xb6<\xa6\xe6\xd2\xdc?'
p506
tp507
Rp508
aF0.22246218876137835
aF17.183984488860922
aa(lp509
g25
ag90
ag4
(g8
S'4s{5)U\xca?'
p510
tp511
Rp512
aF0.11433539025992245
aF17.19257071321933
aa(lp513
g25
ag95
ag4
(g8
S'V\xf0U\xd4y5\xea?'
p514
tp515
Rp516
aF0.1034683448840314
aF11.45684386169593
aa(lp517
g25
ag100
ag4
(g8
S'1#\x03t\xcab\xe5?'
p518
tp519
Rp520
aF0.30276066367963395
aF36.018530697975415
aa(lp521
g25
ag105
ag4
(g8
S'\xdfF\xbes\x80<\xe5?'
p522
tp523
Rp524
aF0.45218083140310017
aF34.58462707325349
aa(lp525
g25
ag110
ag4
(g8
S'\xda\xea\xfeu\xaf\xb9\xe0?'
p526
tp527
Rp528
aF0.27656019983823665
aF7.412793431458031
aa(lp529
g25
ag115
ag4
(g8
S'&\xe6*/\x1b\xe6\xef?'
p530
tp531
Rp532
aF0.382127556575867
aF9.350836201550216
aa(lp533
g25
ag120
ag4
(g8
S'\xaf\xd7>I \xc3\xed?'
p534
tp535
Rp536
aF0.4615189121275717
aF17.09244797136887
aa(lp537
g25
ag125
ag4
(g8
S'\x88\x95\xf9\xf4\xb7\xbd\xef?'
p538
tp539
Rp540
aF0.37492908080550014
aF8.393624066404783
aa(lp541
g25
ag130
ag4
(g8
S'\x1d"\xd0\x9e\x0c\xac\xe4?'
p542
tp543
Rp544
aF0.2742829592924322
aF24.93854480527613
aa(lp545
g25
ag135
ag4
(g8
S'z/\x81\xe8\xf1\xb7\xea?'
p546
tp547
Rp548
aF0.601458358347033
aF23.33098733587856
aa(lp549
g25
ag140
ag4
(g8
S'\xf0\xeb\ni\x13\xc4\xe9?'
p550
tp551
Rp552
aF0.26616073757935527
aF11.944911200506397
aa(lp553
g25
ag145
ag4
(g8
S'\x98|\xd4\xae\x8f>\xeb?'
p554
tp555
Rp556
aF0.296093871081059
aF30.318174351906087
aa(lp557
g30
ag35
ag4
(g8
S'\xfa\x0f2\xb6!\xbd\xd0?'
p558
tp559
Rp560
aF-0.0023233589226609452
aF20.481177546655456
aa(lp561
g30
ag40
ag4
(g8
S'\xba\xf5\xdbNk\x05\xc3?'
p562
tp563
Rp564
aF0.303573081824706
aF15.166641696219891
aa(lp565
g30
ag45
ag4
(g8
S'\x1cb\x88\x8bdG\xc0?'
p566
tp567
Rp568
aF0.5181202832166577
aF30.18779200670423
aa(lp569
g30
ag50
ag4
(g8
S'x@-L-s\xe4?'
p570
tp571
Rp572
aF-0.057702194014590535
aF25.44198448238987
aa(lp573
g30
ag55
ag4
(g8
S'\x0c\xa3\xd1t\xb1\x9a\xc8?'
p574
tp575
Rp576
aF-0.09789645503536215
aF40.18234622058662
aa(lp577
g30
ag60
ag4
(g8
S'\rW\xb9\xca\xb4\x07\xb4?'
p578
tp579
Rp580
aF0.09432215572141855
aF12.118445491447279
aa(lp581
g30
ag65
ag4
(g8
S'\x13\xb6\x8d\x03\xf6\xfc\x7f?'
p582
tp583
Rp584
aF1.9303500904094
aF-20.532271146176953
aa(lp585
g30
ag70
ag4
(g8
S"\x98y'\xae\xcd\xf4\xba?"
p586
tp587
Rp588
aF0.14543420294388132
aF26.258015581145216
aa(lp589
g30
ag75
ag4
(g8
S'\xafO\xa5\x03\x1e\xd2\xe6?'
p590
tp591
Rp592
aF0.3208764856829617
aF32.75575538353985
aa(lp593
g30
ag80
ag4
(g8
S'\xaa\xc8\x80\x02dr\x9f?'
p594
tp595
Rp596
aF0.991532893634843
aF-16.520409725779388
aa(lp597
g30
ag85
ag4
(g8
S':\x15\xa3\x85~r\xca?'
p598
tp599
Rp600
aF0.2439022511081862
aF13.696752615389833
aa(lp601
g30
ag90
ag4
(g8
S'\xda\xd55\x8b\xde:\x99?'
p602
tp603
Rp604
aF0.11317990946827611
aF16.295404651442592
aa(lp605
g30
ag95
ag4
(g8
S'\x15/u\xb4\x89]\xe2?'
p606
tp607
Rp608
aF0.10398500502438912
aF10.530084012468496
aa(lp609
g30
ag100
ag4
(g8
S"\xb0\x17\xb9\xf9'\x0c\x8d?"
p610
tp611
Rp612
aF0.34893079049632547
aF30.023338163727544
aa(lp613
g30
ag105
ag4
(g8
S'\x17\x1f\x84\xe9[\x8b\xdf?'
p614
tp615
Rp616
aF0.34982264495442494
aF38.22608941472518
aa(lp617
g30
ag110
ag4
(g8
S'2&d\xa0\xb7\xf0\x11?'
p618
tp619
Rp620
aF0.3128153364734185
aF2.3716310848528153
aa(lp621
g30
ag115
ag4
(g8
S'\xbc\x12$:\x1c\x93\xec?'
p622
tp623
Rp624
aF0.42478807838644195
aF2.9319311552066196
aa(lp625
g30
ag120
ag4
(g8
S'\xffc>M\xa2-\xd6?'
p626
tp627
Rp628
aF0.5267767326245003
aF8.330180140220037
aa(lp629
g30
ag125
ag4
(g8
S'\xd8t2\xa7"\t\xe3?'
p630
tp631
Rp632
aF0.4079921144143131
aF2.7421821896717233
aa(lp633
g30
ag130
ag4
(g8
S'\xca\xeb\xb5\xd4\xcf\x0b\xe6?'
p634
tp635
Rp636
aF0.17509285247499307
aF29.875192142885965
aa(lp637
g30
ag135
ag4
(g8
S'_\xd6n/\x90R\xa7?'
p638
tp639
Rp640
aF0.5893920933536801
aF19.05171194872274
aa(lp641
g30
ag140
ag4
(g8
S'\x001\xe0\xfd\xed\xe8\x82?'
p642
tp643
Rp644
aF0.31872729208393785
aF5.793825002338096
aa(lp645
g30
ag145
ag4
(g8
S')|,ID=\xa6?'
p646
tp647
Rp648
aF0.4011199503012056
aF20.05302212181784
aa(lp649
g35
ag40
ag4
(g8
S'\xd2W\xeb\x06l\xbd\xe8?'
p650
tp651
Rp652
aF0.16724376028255383
aF34.08925836300641
aa(lp653
g35
ag45
ag4
(g8
S'\x00\x18\xaf\xe3t$\xde?'
p654
tp655
Rp656
aF0.588585851579241
aF56.326807742540346
aa(lp657
g35
ag50
ag4
(g8
S'm\xec\xfb\xd3?{\xdd?'
p658
tp659
Rp660
aF0.7932493282162763
aF5.088406795380019
aa(lp661
g35
ag55
ag4
(g8
S'\xa1\xdbN\x8a\xd4S\xe6?'
p662
tp663
Rp664
aF1.611289696833619
aF0.2588997833732307
aa(lp665
g35
ag60
ag4
(g8
S'\x1f\xb0\x06\x0b\xbc\xcb\xd3?'
p666
tp667
Rp668
aF0.08571714541357645
aF17.31228328447785
aa(lp669
g35
ag65
ag4
(g8
S'\x1c\xc5\x92\xdd\xcft\xed?'
p670
tp671
Rp672
aF-1.5884413493971605
aF153.65336081456894
aa(lp673
g35
ag70
ag4
(g8
S'\xea\xe0XYk\x17\xc3?'
p674
tp675
Rp676
aF0.8906336123148142
aF18.86158744391338
aa(lp677
g35
ag75
ag4
(g8
S'\x87\x93\xb52\xe6\xf2\xef?'
p678
tp679
Rp680
aF0.087162635483641
aF54.57703483454375
aa(lp681
g35
ag80
ag4
(g8
S'\xe5\x18{\x9f\x96\xc9\xee?'
p682
tp683
Rp684
aF-0.8697775555814444
aF74.0448837981824
aa(lp685
g35
ag85
ag4
(g8
S'\x86b\x9e\xb3\xd7&\xdc?'
p686
tp687
Rp688
aF0.923087282874375
aF12.880778190129991
aa(lp689
g35
ag90
ag4
(g8
S'x\xfb\xd7\xc385\xd9?'
p690
tp691
Rp692
aF0.42176215755131086
aF16.05051348933076
aa(lp693
g35
ag95
ag4
(g8
S'\xd4\xaf\xd0\xb7\xd0R\xee?'
p694
tp695
Rp696
aF0.10097954469571513
aF16.12437210415014
aa(lp697
g35
ag100
ag4
(g8
S'\x00CU@\x15\xac\xed?'
p698
tp699
Rp700
aF0.4301329608498192
aF46.941384838961284
aa(lp701
g35
ag105
ag4
(g8
S'>\x18\x93\xee\xd0.\xde?'
p702
tp703
Rp704
aF2.029352422160151
aF22.72898622886995
aa(lp705
g35
ag110
ag4
(g8
S'\xe3a\xc39\x85<\xef?'
p706
tp707
Rp708
aF-0.09576645975081877
aF27.315591699763722
aa(lp709
g35
ag115
ag4
(g8
S'\xb6y\x10\r\xde\xf6\xef?'
p710
tp711
Rp712
aF-0.20550055395100264
aF38.337126425687316
aa(lp713
g35
ag120
ag4
(g8
S'L\xbc\xfb\xeb,\xbd\xef?'
p714
tp715
Rp716
aF0.19175613175602235
aF43.165392119570356
aa(lp717
g35
ag125
ag4
(g8
S'\\i\xfd\x19{\xea\xef?'
p718
tp719
Rp720
aF0.26679936386055525
aF27.319918416958473
aa(lp721
g35
ag130
ag4
(g8
S'\x96\x7f\xb4V\xd1p\xea?'
p722
tp723
Rp724
aF0.11066908908217643
aF40.50069606858879
aa(lp725
g35
ag135
ag4
(g8
S'\xb9\xba\x1e\x00\x90Q\xed?'
p726
tp727
Rp728
aF0.5948057876869783
aF50.30446742483769
aa(lp729
g35
ag140
ag4
(g8
S'8\x9f\xbd\xee6\x95\xef?'
p730
tp731
Rp732
aF0.10521883707480484
aF27.09036281952116
aa(lp733
g35
ag145
ag4
(g8
S'\x05I\x1ar\x0f\x94\xef?'
p734
tp735
Rp736
aF-0.4279603994927548
aF58.23632097441897
aa(lp737
g40
ag45
ag4
(g8
S'\x84\xf0\xb3\xb3\x99\xc8\xb7?'
p738
tp739
Rp740
aF0.9842637283481421
aF31.385048929396348
aa(lp741
g40
ag50
ag4
(g8
S':\x03n\x96A\xd8\xe3?'
p742
tp743
Rp744
aF0.14548449342971814
aF15.745947859583683
aa(lp745
g40
ag55
ag4
(g8
S'P\xa09\xe3&\x1f\xc8?'
p746
tp747
Rp748
aF-0.2938059990842623
aF43.99839485022061
aa(lp749
g40
ag60
ag4
(g8
S'\xcb\xce\x91\xce\xd1\x18\xa0?'
p750
tp751
Rp752
aF0.30165433039221146
aF7.745403227132023
aa(lp753
g40
ag65
ag4
(g8
S'b\xf2\x0c\x0e\xd6s\xda?'
p754
tp755
Rp756
aF4.104724498879418
aF-32.47831617023985
aa(lp757
g40
ag70
ag4
(g8
S'NOr\xb4\xff\xfc\xc1?'
p758
tp759
Rp760
aF0.428277137183255
aF20.896262147347414
aa(lp761
g40
ag75
ag4
(g8
S'\x16\x831CO\x87\xed?'
p762
tp763
Rp764
aF0.7159360100954184
aF29.509733937760316
aa(lp765
g40
ag80
ag4
(g8
S'\xe3LR\x81%\x91\xda?'
p766
tp767
Rp768
aF1.8740241149877188
aF-13.870351766613084
aa(lp769
g40
ag85
ag4
(g8
S'\xde\xd3cT\xaeX\xc5?'
p770
tp771
Rp772
aF0.5913023419509793
aF9.463429380083774
aa(lp773
g40
ag90
ag4
(g8
S"\xa4'd\xa0\xf03\xb0?"
p774
tp775
Rp776
aF0.31754404776666
aF12.71318563636958
aa(lp777
g40
ag95
ag4
(g8
S'\xbc\xc9b(\x19\x01\xde?'
p778
tp779
Rp780
aF0.3208692992519918
aF6.147183777680123
aa(lp781
g40
ag100
ag4
(g8
S'z\xb13\xdey\xef\xc8?'
p782
tp783
Rp784
aF0.7445152335575163
aF27.768612421181842
aa(lp785
g40
ag105
ag4
(g8
S'\xecuq\xcbcr\xc2?'
p786
tp787
Rp788
aF1.2457015779843519
aF17.24944395665689
aa(lp789
g40
ag110
ag4
(g8
S'\x08dK\x9a\x1d\xc3\xc9?'
p790
tp791
Rp792
aF0.663551098255966
aF0.4966380982082299
aa(lp793
g40
ag115
ag4
(g8
S'kiF\xa4jT\xef?'
p794
tp795
Rp796
aF1.105650330744059
aF-7.283115136402181
aa(lp797
g40
ag120
ag4
(g8
S'5\x8eV#\xf1\x9e\xe1?'
p798
tp799
Rp800
aF1.1501951503323986
aF3.943767532014988
aa(lp801
g40
ag125
ag4
(g8
S'\xf6\x99\xa82\x8e\x04\xe6?'
p802
tp803
Rp804
aF1.0107745743942658
aF-5.1512260336112305
aa(lp805
g40
ag130
ag4
(g8
S'\xffhT\xa9^ \xd8?'
p806
tp807
Rp808
aF0.8529058913488794
aF10.776361348650383
aa(lp809
g40
ag135
ag4
(g8
S' \x87\xc7\xca\xef\x97\xbe?'
p810
tp811
Rp812
aF1.4203479035482993
aF9.141969284781396
aa(lp813
g40
ag140
ag4
(g8
S'K\xb6z\xe0\xd4\x1c\xd9?'
p814
tp815
Rp816
aF0.7000108807145451
aF2.986759879069517
aa(lp817
g40
ag145
ag4
(g8
S"\x00\x10'P\xa4\x99\xe8?"
p818
tp819
Rp820
aF0.7669517438066746
aF20.794308616683267
aa(lp821
g45
ag50
ag4
(g8
S'\x8fi[\x9a\xbc^\xe3?'
p822
tp823
Rp824
aF-0.018987095151744682
aF22.496046870397542
aa(lp825
g45
ag55
ag4
(g8
S',\xda\x11\x92\x8f?\xd2?'
p826
tp827
Rp828
aF-0.05217475407542038
aF36.54732635976923
aa(lp829
g45
ag60
ag4
(g8
S'\xfeaq5#g\xc1?'
p830
tp831
Rp832
aF0.1345495435023356
aF9.866025299983544
aa(lp833
g45
ag65
ag4
(g8
S'\xee\n\xcf\x93\x7f\xad\xcf?'
p834
tp835
Rp836
aF2.8365735178867864
aF-72.29308975188812
aa(lp837
g45
ag70
ag4
(g8
S'p\x7fk\xf6\xf5\t\xbd?'
p838
tp839
Rp840
aF0.2690030823687528
aF18.58282305966319
aa(lp841
g45
ag75
ag4
(g8
S'\xd2\x94\xffK\xa7\x8b\xeb?'
p842
tp843
Rp844
aF0.48279832753642027
aF23.38129124348248
aa(lp845
g45
ag80
ag4
(g8
S'\xb1\x8b\xff\x1c\xf0\x04\xdc?'
p846
tp847
Rp848
aF1.4651018647323384
aF-43.65952033407896
aa(lp849
g45
ag85
ag4
(g8
S'|&\x03\x0fy\xe1\xb2?'
p850
tp851
Rp852
aF0.4598554232268918
aF0.22953310540533067
aa(lp853
g45
ag90
ag4
(g8
S'^\xf6vGN\xcf\xa3?'
p854
tp855
Rp856
aF0.19212005439398921
aF11.498466847889041
aa(lp857
g45
ag95
ag4
(g8
S'l\xb3\x11\xb4F\x8f\xe3?'
p858
tp859
Rp860
aF0.16832262928807468
aF6.682032182015817
aa(lp861
g45
ag100
ag4
(g8
S'\x9d\xbf*r\x02\x19\xb4?'
p862
tp863
Rp864
aF0.5742514077148071
aF16.46696577959372
aa(lp865
g45
ag105
ag4
(g8
S'\x9d\xd5tE\xc9\xb0\xe2?'
p866
tp867
Rp868
aF0.6476656771611833
aF19.7224740029543
aa(lp869
g45
ag110
ag4
(g8
S'\xca\xd0z\xfa\x16d\xc0?'
p870
tp871
Rp872
aF0.4811150627371223
aF-7.480572115429403
aa(lp873
g45
ag115
ag4
(g8
S'\xb2\xcd\x83\x1b\xab\xcf\xee?'
p874
tp875
Rp876
aF0.597972422804257
aF-6.666936707139257
aa(lp877
g45
ag120
ag4
(g8
S'\xe6(\xd7\xcc"*\xe7?'
p878
tp879
Rp880
aF0.8112145824022782
aF-8.330675219268556
aa(lp881
g45
ag125
ag4
(g8
S'\xc4\x85\xe7\x13KR\xea?'
p882
tp883
Rp884
aF0.6247547855817759
aF-9.92029572494723
aa(lp885
g45
ag130
ag4
(g8
S'$\xe59(p\xa4\xe6?'
p886
tp887
Rp888
aF0.26434292479229526
aF24.698773500905887
aa(lp889
g45
ag135
ag4
(g8
S',\\\xddQ\xe3w\xd2?'
p890
tp891
Rp892
aF0.916454278620648
aF-0.19140927539031338
aa(lp893
g45
ag140
ag4
(g8
S'\x18\x17f\x06d"\xb1?'
p894
tp895
Rp896
aF0.5268361181021524
aF-6.745605916998912
aa(lp897
g45
ag145
ag4
(g8
S'\x08W+z\x9b%\xd0?'
p898
tp899
Rp900
aF0.5994277908751423
aF8.614644283675958
aa(lp901
g50
ag55
ag4
(g8
S'\xa1H{v\x82\x16\xd6?'
p902
tp903
Rp904
aF-0.05953611117766788
aF34.246912534068635
aa(lp905
g50
ag60
ag4
(g8
S'\x12mK\xcd\xc2\xdc\xd2?'
p906
tp907
Rp908
aF0.10723670663247564
aF16.779855556888677
aa(lp909
g50
ag65
ag4
(g8
S'[\xba\xd2\xa9\xedR\xed?'
p910
tp911
Rp912
aF-2.311078971882468
aF170.38546280582585
aa(lp913
g50
ag70
ag4
(g8
S'\x80\xae\xe7R:\xcb\xd6?'
p914
tp915
Rp916
aF0.2609745114973612
aF31.418124264604145
aa(lp917
g50
ag75
ag4
(g8
S'\x03tz\x05\x8d\xf1\xef?'
p918
tp919
Rp920
aF-0.07193058074467307
aF57.87223771615946
aa(lp921
g50
ag80
ag4
(g8
S'\xd2\xe8!\x06\xbf\xf4\xee?'
p922
tp923
Rp924
aF-1.7064582921836293
aF92.55559764523422
aa(lp925
g50
ag85
ag4
(g8
S'\xc7\xab\xfb]\xf2\n\xe6?'
p926
tp927
Rp928
aF0.3040638669916007
aF25.1829842382504
aa(lp929
g50
ag90
ag4
(g8
S'h\x80i\xfb\x1bF\xde?'
p930
tp931
Rp932
aF0.14788816426674212
aF21.481486490921675
aa(lp933
g50
ag95
ag4
(g8
S'\xe4b\r\x9a\xfcL\xee?'
p934
tp935
Rp936
aF0.2578968336796883
aF12.707996971368974
aa(lp937
g50
ag100
ag4
(g8
S'e\xbd\xc2\x1b\xad=\xee?'
p938
tp939
Rp940
aF-0.054367514067900746
aF56.830108359242516
aa(lp941
g50
ag105
ag4
(g8
S'\xae\xba\xf9\xc2\x81\x1d\xe1?'
p942
tp943
Rp944
aF1.2889815877065045
aF36.61998698256668
aa(lp945
g50
ag110
ag4
(g8
S'\x90\xc2\xe3Ex>\xef?'
p946
tp947
Rp948
aF-0.2795538018649049
aF31.296965202106506
aa(lp949
g50
ag115
ag4
(g8
S'W\xdc\xe3\x89d\xf8\xef?'
p950
tp951
Rp952
aF0.25595233046620847
aF28.737253183852687
aa(lp953
g50
ag120
ag4
(g8
S'X\xc1\xed\xa9\xc0\xc3\xef?'
p954
tp955
Rp956
aF-0.23366237255983924
aF52.01357335161828
aa(lp957
g50
ag125
ag4
(g8
S'\xc9\x16\x96\xb7\xe3\xe8\xef?'
p958
tp959
Rp960
aF0.03775324143765024
aF31.938356165205356
aa(lp961
g50
ag130
ag4
(g8
S'\x8c\xae\x02\x00g\x8a\xe6?'
p962
tp963
Rp964
aF1.1090383131506494
aF19.237272683899008
aa(lp965
g50
ag135
ag4
(g8
S'\xa4\xa7\xdb\x05\xe1F\xed?'
p966
tp967
Rp968
aF-0.17491101613809423
aF66.09322739543406
aa(lp969
g50
ag140
ag4
(g8
S'\xcd\xaf\xf7\xfa\xdf\xae\xef?'
p970
tp971
Rp972
aF-0.024139464285351853
aF29.73914178538291
aa(lp973
g50
ag145
ag4
(g8
S'\xc3\xad\xd4-\x19Y\xef?'
p974
tp975
Rp976
aF-0.43238834199737075
aF58.7107452335575
aa(lp977
g55
ag60
ag4
(g8
S'X\xbf\x19\x0cQ\x05\xb8?'
p978
tp979
Rp980
aF-0.09768884343880985
aF22.275473459108127
aa(lp981
g55
ag65
ag4
(g8
S'\xcb3b\x04\xc7\x1a\xe7?'
p982
tp983
Rp984
aF-1.434386259246061
aF168.70445030956913
aa(lp985
g55
ag70
ag4
(g8
S'\xc0~\xbb\xe9\xa9\x11\xe0?'
p986
tp987
Rp988
aF0.1332819137327802
aF32.554402183696524
aa(lp989
g55
ag75
ag4
(g8
S'\xff\x01\xfa$F\x90\xef?'
p990
tp991
Rp992
aF-0.2879949511719688
aF65.84678694179503
aa(lp993
g55
ag80
ag4
(g8
S'\x84\xea1z%\xcb\xeb?'
p994
tp995
Rp996
aF-0.5286363929328812
aF73.81634027837825
aa(lp997
g55
ag85
ag4
(g8
S'\xd4\xb1+\xa0\xcf\x13\xe7?'
p998
tp999
Rp1000
aF-0.006388009309886589
aF31.8397191440649
aa(lp1001
g55
ag90
ag4
(g8
S'\xe0\xfc4\xc5\xe5\xee\xdc?'
p1002
tp1003
Rp1004
aF-0.0026716202011264345
aF24.704777022765697
aa(lp1005
g55
ag95
ag4
(g8
S'\xe3S\x82\xbb\x1e\xfd\xe0?'
p1006
tp1007
Rp1008
aF-0.21079216036774195
aF25.12823416827676
aa(lp1009
g55
ag100
ag4
(g8
S'\xc9\x10t\x03\xb24\xec?'
p1010
tp1011
Rp1012
aF-0.10170621953886183
aF59.03229603730127
aa(lp1013
g55
ag105
ag4
(g8
S'\xc5\x94\xf9\xe6\xfc\xaf\xe7?'
p1014
tp1015
Rp1016
aF0.020045884513947954
aF63.28465314538541
aa(lp1017
g55
ag110
ag4
(g8
S'*\x00v*\r\x97\xeb?'
p1018
tp1019
Rp1020
aF-0.19143404686937038
aF31.684948866050025
aa(lp1021
g55
ag115
ag4
(g8
S'\xfe\x96\x1f\xbe*\n\xef?'
p1022
tp1023
Rp1024
aF-0.8214041950731296
aF61.25716626169332
aa(lp1025
g55
ag120
ag4
(g8
S'z\xadQN:\xd0\xed?'
p1026
tp1027
Rp1028
aF-0.36707695798918527
aF59.1679776029315
aa(lp1029
g55
ag125
ag4
(g8
S'G\xd2V\xca\xfd5\xef?'
p1030
tp1031
Rp1032
aF-0.3187065973241978
aF43.25117356836182
aa(lp1033
g55
ag130
ag4
(g8
S'l\x94\x91^\xaen\xd8?'
p1034
tp1035
Rp1036
aF-0.6140203098843794
aF63.00174469788673
aa(lp1037
g55
ag135
ag4
(g8
S'\xba\x02\x1e\xd5\xaeC\xec?'
p1038
tp1039
Rp1040
aF-0.09249181872978562
aF65.43600791527018
aa(lp1041
g55
ag140
ag4
(g8
S'$\x06\x11\xf0\xd9\xb7\xec?'
p1042
tp1043
Rp1044
aF-0.2736209805151718
aF38.252720719701856
aa(lp1045
g55
ag145
ag4
(g8
S'n\x80\xca\xfef\xce\xeb?'
p1046
tp1047
Rp1048
aF-0.456750339625005
aF64.61009736741129
aa(lp1049
g60
ag65
ag4
(g8
S'_.\xe3\xcf\x12\xdf\xd8?'
p1050
tp1051
Rp1052
aF9.129891932126252
aF-52.56237707172531
aa(lp1053
g60
ag70
ag4
(g8
S'\x84\xfat\xc0\x88\xa5\xc9?'
p1054
tp1055
Rp1056
aF0.6192666222668932
aF25.151646746238654
aa(lp1057
g60
ag75
ag4
(g8
S'_S\xbf\xaeC\x87\xef?'
p1058
tp1059
Rp1060
aF1.5415782502031492
aF26.975295406661758
aa(lp1061
g60
ag80
ag4
(g8
S'7P26k/\xe1?'
p1062
tp1063
Rp1064
aF3.9747871182002346
aF-19.35314067567957
aa(lp1065
g60
ag85
ag4
(g8
S'^\xf3\x01\xdf\xdb\x0f\xd8?'
p1066
tp1067
Rp1068
aF1.250157478011566
aF7.8094750712223515
aa(lp1069
g60
ag90
ag4
(g8
S'\xb07\xb9\x8b"\x8e\xb5?'
p1070
tp1071
Rp1072
aF0.8522824787767405
aF8.37792077483995
aa(lp1073
g60
ag95
ag4
(g8
S'\x0c\xab\xf9\x1f\xc6\xac\xe2?'
p1074
tp1075
Rp1076
aF0.6966078257705746
aF4.902674277769258
aa(lp1077
g60
ag100
ag4
(g8
S'\xa6T\xcf\xd1 n\xe1?'
p1078
tp1079
Rp1080
aF1.4833113855042162
aF27.41566771103679
aa(lp1081
g60
ag105
ag4
(g8
S'\x86c\xca\xce\xf0\xe0\xd8?'
p1082
tp1083
Rp1084
aF2.4982233655030406
aF16.34663953398774
aa(lp1085
g60
ag110
ag4
(g8
S'\x02\x1c)<u\xaa\xd6?'
p1086
tp1087
Rp1088
aF1.4268683784763119
aF-1.8159098037588493
aa(lp1089
g60
ag115
ag4
(g8
S'\x87P\xe2<d\x03\xee?'
p1090
tp1091
Rp1092
aF2.50957247305265
aF-13.652123243171253
aa(lp1093
g60
ag120
ag4
(g8
S"\xdd\xe41'1?\xe4?"
p1094
tp1095
Rp1096
aF2.3135998919293272
aF2.978478793484868
aa(lp1097
g60
ag125
ag4
(g8
S'\xc8\xee\xa8_\xed\xd7\xec?'
p1098
tp1099
Rp1100
aF2.004700616882851
aF-5.457311232175158
aa(lp1101
g60
ag130
ag4
(g8
S'>\x19\x93\xfe\x81b\xd0?'
p1102
tp1103
Rp1104
aF2.1948425742792756
aF0.9295862111262494
aa(lp1105
g60
ag135
ag4
(g8
S']T\xb1=\xdeI\xe0?'
p1106
tp1107
Rp1108
aF2.773805695704097
aF9.53523053995383
aa(lp1109
g60
ag140
ag4
(g8
S'F\x94iX\xb3\xfc\xe3?'
p1110
tp1111
Rp1112
aF1.470373010638214
aF1.2120410788594
aa(lp1113
g60
ag145
ag4
(g8
S'\x11V\xb7A_\xe0\xe7?'
p1114
tp1115
Rp1116
aF1.6565465767930996
aF17.98172999178523
aa(lp1117
g65
ag70
ag4
(g8
S'\x96\xd9j\x15\t\xa7\xc4?'
p1118
tp1119
Rp1120
aF0.060780278541280985
aF29.572463632550175
aa(lp1121
g65
ag75
ag4
(g8
S'p\x8d\x8d\xb5\x16\t\xef?'
p1122
tp1123
Rp1124
aF0.15514729995902643
aF37.51376847091143
aa(lp1125
g65
ag80
ag4
(g8
S'3\x94\x82\x99N/\x8d?'
p1126
tp1127
Rp1128
aF0.50301887955155
aF-4.682850429340505
aa(lp1129
g65
ag85
ag4
(g8
S'\xe8\xdd\x90\xdf\xe8\xb5\xd6?'
p1130
tp1131
Rp1132
aF0.105275677040644
aF18.84943481135787
aa(lp1133
g65
ag90
ag4
(g8
S' C\xfd2QT\xc1?'
p1134
tp1135
Rp1136
aF0.05370079141232867
aF18.097832092327195
aa(lp1137
g65
ag95
ag4
(g8
S',j#\x81\xcc\xf4\xe7?'
p1138
tp1139
Rp1140
aF0.04900667356067237
aF12.22630696909058
aa(lp1141
g65
ag100
ag4
(g8
S'vX\xea\xb0\x97\x94\xd6?'
p1142
tp1143
Rp1144
aF0.16048040269897024
aF36.196575251443335
aa(lp1145
g65
ag105
ag4
(g8
S'\xda\x87\x13R\xfeq\xe3?'
p1146
tp1147
Rp1148
aF0.13943922667367192
aF47.01911862159812
aa(lp1149
g65
ag110
ag4
(g8
S'\x97J\x94K"lb?'
p1150
tp1151
Rp1152
aF0.15498843050144803
aF6.556255184901151
aa(lp1153
g65
ag115
ag4
(g8
S'\xd3c\xf9\xf6:\xc8\xef?'
p1154
tp1155
Rp1156
aF0.21825948272789764
aF7.668480170093574
aa(lp1157
g65
ag120
ag4
(g8
S';e\xd0\xd5\x86$\xe6?'
p1158
tp1159
Rp1160
aF0.2557260970744147
aF16.017041410413484
aa(lp1161
g65
ag125
ag4
(g8
S'!n!E\xb3\x1b\xef?'
p1162
tp1163
Rp1164
aF0.19730668769248433
aF8.787345161343389
aa(lp1165
g65
ag130
ag4
(g8
S'\xb4C\xc0\x1bOd\xe7?'
p1166
tp1167
Rp1168
aF0.08594395309414438
aF32.31555554978055
aa(lp1169
g65
ag135
ag4
(g8
S'd\x94\x84\x1c\x8a\xcc\xcf?'
p1170
tp1171
Rp1172
aF0.2814929823946849
aF28.2143177726537
aa(lp1173
g65
ag140
ag4
(g8
S'\xd9=\x1e\x97\x7fR\xe1?'
p1174
tp1175
Rp1176
aF0.15072826376707046
aF10.93025802877306
aa(lp1177
g65
ag145
ag4
(g8
S'\x80\x8fg\xa4^3\xd9?'
p1178
tp1179
Rp1180
aF0.20209133393340467
aF25.01211203103341
aa(lp1181
g70
ag75
ag4
(g8
S'\xd6\x1aT\xf7T\x12\xe4?'
p1182
tp1183
Rp1184
aF0.8085773767585811
aF26.469858828492555
aa(lp1185
g70
ag80
ag4
(g8
S'\x12\xda\x9anP\x94\xe5?'
p1186
tp1187
Rp1188
aF1.5322712943702135
aF-0.23907008344576752
aa(lp1189
g70
ag85
ag4
(g8
S'K\x05t\x15\x00\xd0\x95?'
p1190
tp1191
Rp1192
aF0.8623781044015667
aF-0.23644152998243229
aa(lp1193
g70
ag90
ag4
(g8
S'|\xc2}\xcc\xe0\x89\xa1?'
p1194
tp1195
Rp1196
aF0.4220561278821481
aF9.021395142142591
aa(lp1197
g70
ag95
ag4
(g8
S'\xe85\x99\xcb3\xb4\xce?'
p1198
tp1199
Rp1200
aF0.3627141031988307
aF4.772771698802444
aa(lp1201
g70
ag100
ag4
(g8
S'\xbc\x9b\xdf\xa5\xb5d\xb4?'
p1202
tp1203
Rp1204
aF0.9319953353850642
aF21.239682239517997
aa(lp1205
g70
ag105
ag4
(g8
S'\xf4\xd5\xb2\x9f\x9d}\x9c?'
p1206
tp1207
Rp1208
aF1.7603710143451625
aF-1.1010363509628007
aa(lp1209
g70
ag110
ag4
(g8
S'\x91\xbf\xb7\x18d<\xdd?'
p1210
tp1211
Rp1212
aF0.606934746714288
aF2.943891558402523
aa(lp1213
g70
ag115
ag4
(g8
S'\xe8\xe3#e\xf7\x1a\xeb?'
p1214
tp1215
Rp1216
aF1.1517668931160987
aF-8.395228481625423
aa(lp1217
g70
ag120
ag4
(g8
S'\xf6\x91U\x9ba\x9f\xc5?'
p1218
tp1219
Rp1220
aF1.3997729077730927
aF-4.662526775727564
aa(lp1221
g70
ag125
ag4
(g8
S'x\x8d\x84\xea\x9c\x93\xcc?'
p1222
tp1223
Rp1224
aF1.1646247872733535
aF-10.294963571922615
aa(lp1225
g70
ag130
ag4
(g8
S'\xc1F\x8ef|]\xe0?'
p1226
tp1227
Rp1228
aF0.6803408821841107
aF17.609369690212688
aa(lp1229
g70
ag135
ag4
(g8
S'\xa0\x06\x87\xa3\xee\x13\xc2?'
p1230
tp1231
Rp1232
aF1.6545554570340082
aF1.2482443130068503
aa(lp1233
g70
ag140
ag4
(g8
S'=\xf2\xcel\x96,\xda?'
p1234
tp1235
Rp1236
aF0.7128081070533445
aF2.888653971054026
aa(lp1237
g70
ag145
ag4
(g8
S'U\xa4n\xd5\xfb\x01\xe6?'
p1238
tp1239
Rp1240
aF0.7092006108501004
aF23.338849944985455
aa(lp1241
g75
ag80
ag4
(g8
S'bK{\xe7)\x89\xe7?'
p1242
tp1243
Rp1244
aF2.2855855855955207
aF-72.40727678200109
aa(lp1245
g75
ag85
ag4
(g8
S'^\xafR\xcc\xc1\xbb\xd1?'
p1246
tp1247
Rp1248
aF0.636185563367581
aF-4.21835164041984
aa(lp1249
g75
ag90
ag4
(g8
S'\xeaH\x0e\xe7\x9d\xec\x94?'
p1250
tp1251
Rp1252
aF0.3208126900673891
aF6.5397127620746005
aa(lp1253
g75
ag95
ag4
(g8
S'\xeexCoEP\xcc?'
p1254
tp1255
Rp1256
aF0.35604981108535616
aF-1.8871566009686305
aa(lp1257
g75
ag100
ag4
(g8
S'B\xa7\xfc7\x0f\xa0\x90?'
p1258
tp1259
Rp1260
aF0.9333424360113689
aF3.086176743485197
aa(lp1261
g75
ag105
ag4
(g8
S'\x92\xba\xd5\tZ\x17\xce?'
p1262
tp1263
Rp1264
aF0.9762668299647568
aF8.935823816294459
aa(lp1265
g75
ag110
ag4
(g8
S'k8z\x91_\x7f\xe0?'
p1266
tp1267
Rp1268
aF0.7626067915284009
aF-17.60032304522575
aa(lp1269
g75
ag115
ag4
(g8
S'`\xfd\xb7,w\xec\xc1?'
p1270
tp1271
Rp1272
aF1.3604767966092595
aF-42.49591114107125
aa(lp1273
g75
ag120
ag4
(g8
S'sif>\x1a\xbc\x8f?'
p1274
tp1275
Rp1276
aF1.4129915555813732
aF-32.55828656065327
aa(lp1277
g75
ag125
ag4
(g8
S'}k\x16\x8d~w\x86?'
p1278
tp1279
Rp1280
aF1.1422010513937508
aF-31.621280891889
aa(lp1281
g75
ag130
ag4
(g8
S'<\x7f%\xda\xe8Z\xe0?'
p1282
tp1283
Rp1284
aF0.6206809238644355
aF7.774706402529489
aa(lp1285
g75
ag135
ag4
(g8
S'\x0e\xe3\xfb\x107,\xc1?'
p1286
tp1287
Rp1288
aF1.4446591366780184
aF-19.01751206118638
aa(lp1289
g75
ag140
ag4
(g8
S"BA\x7f\xc9'\xac\xb3?"
p1290
tp1291
Rp1292
aF0.8283500444109185
aF-17.447925804627204
aa(lp1293
g75
ag145
ag4
(g8
S'F\x8eS\x04\xfdb\xa7?'
p1294
tp1295
Rp1296
aF1.1119608057039845
aF-13.111741030403394
aa(lp1297
g80
ag85
ag4
(g8
S'\x86\xae\xeb!\xaf\xcc\xdb?'
p1298
tp1299
Rp1300
aF0.19251727770288968
aF20.775005518541555
aa(lp1301
g80
ag90
ag4
(g8
S'4\xac@I\xe5\xce\xbc?'
p1302
tp1303
Rp1304
aF0.09222163170475406
aF19.417254940523957
aa(lp1305
g80
ag95
ag4
(g8
S'\xa8\xb3\xd5\x1bE\xd0\xe9?'
p1306
tp1307
Rp1308
aF0.07489952486504031
aF13.952513398722994
aa(lp1309
g80
ag100
ag4
(g8
S'\xa8t\xb3\xa1@\x82\xd8?'
p1310
tp1311
Rp1312
aF0.3096192044531645
aF38.221397864840114
aa(lp1313
g80
ag105
ag4
(g8
S'h\x16n\xf8\x0f\xf7\xe3?'
p1314
tp1315
Rp1316
aF0.22131199066262286
aF51.468427132661155
aa(lp1317
g80
ag110
ag4
(g8
S'\xd66\xe90\x84\x04\xcc?'
p1318
tp1319
Rp1320
aF0.2925172773230706
aF8.878595008734642
aa(lp1321
g80
ag115
ag4
(g8
S'\x14\xa8\x1e\xccb\x92\xef?'
p1322
tp1323
Rp1324
aF0.3642394640116223
aF13.627737804531655
aa(lp1325
g80
ag120
ag4
(g8
S'\tE\xc6S x\xe9?'
p1326
tp1327
Rp1328
aF0.47357641280037255
aF20.36007889435824
aa(lp1329
g80
ag125
ag4
(g8
S'haN(mL\xed?'
p1330
tp1331
Rp1332
aF0.3527137083162399
aF12.852925661457473
aa(lp1333
g80
ag130
ag4
(g8
S'\xd6\x16\x1fyFh\xe8?'
p1334
tp1335
Rp1336
aF0.0956753671574001
aF37.35430618024872
aa(lp1337
g80
ag135
ag4
(g8
S'v\x04kR\x7fN\xd3?'
p1338
tp1339
Rp1340
aF0.5247318628372543
aF32.80112428280705
aa(lp1341
g80
ag140
ag4
(g8
S'\xe8@92:\xa6\xe3?'
p1342
tp1343
Rp1344
aF0.2763114015780588
aF13.649127003789559
aa(lp1345
g80
ag145
ag4
(g8
S'\x8c\xc6P\xf4\xd8[\xd4?'
p1346
tp1347
Rp1348
aF0.3780353977980805
aF28.230886744824147
aa(lp1349
g85
ag90
ag4
(g8
S'\x14M\xd2\xea\x93^k?'
p1350
tp1351
Rp1352
aF0.4148398220618078
aF11.495680482436075
aa(lp1353
g85
ag95
ag4
(g8
S'\x0c\xc5\xacX\x82\x7f\xd9?'
p1354
tp1355
Rp1356
aF0.36996575879207144
aF6.473651421917793
aa(lp1357
g85
ag100
ag4
(g8
S'@F\xab9\xf7\x7f\xbf?'
p1358
tp1359
Rp1360
aF0.9498957183544805
aF25.633276424218003
aa(lp1361
g85
ag105
ag4
(g8
S'|\xb2\xcc}\x1cA\x9e?'
p1362
tp1363
Rp1364
aF1.5975721548869606
aF13.416233026558388
aa(lp1365
g85
ag110
ag4
(g8
S'e\xb5\xd1\xec#\n\xe1?'
p1366
tp1367
Rp1368
aF0.7257047288105914
aF2.4172168806683736
aa(lp1369
g85
ag115
ag4
(g8
S'lJ\x0eyp\x96\xec?'
p1370
tp1371
Rp1372
aF1.1418233311614305
aF-1.9514075352501905
aa(lp1373
g85
ag120
ag4
(g8
S'\xd9a:5\xcdA\xe0?'
p1374
tp1375
Rp1376
aF1.36400347346428
aF3.9179455711205904
aa(lp1377
g85
ag125
ag4
(g8
S'\xb0y\xcf\x91\xea\xd9\xe1?'
p1378
tp1379
Rp1380
aF1.104974763930773
aF-2.210550969290864
aa(lp1381
g85
ag130
ag4
(g8
S'/\x88\xa9\xba\xc1G\xde?'
p1382
tp1383
Rp1384
aF0.8296615260263033
aF16.5070505181977
aa(lp1385
g85
ag135
ag4
(g8
S'8\xd6\x81Z(\xc5\xbe?'
p1386
tp1387
Rp1388
aF1.54262048401065
aF13.593624414800033
aa(lp1389
g85
ag140
ag4
(g8
S'2\xbf\x91\x01\xd3\x81\xdf?'
p1390
tp1391
Rp1392
aF0.8519143679497437
aF2.2821852884691083
aa(lp1393
g85
ag145
ag4
(g8
S'}\xb1\x01m\x89\x11\xe4?'
p1394
tp1395
Rp1396
aF0.8391269150524414
aF23.003536342809213
aa(lp1397
g90
ag95
ag4
(g8
S'\x00\xe3\x0b\xc0g\x94\xc8?'
p1398
tp1399
Rp1400
aF0.6922542624255542
aF1.1343190644902208
aa(lp1401
g90
ag100
ag4
(g8
S'd=2%Q(\x98?'
p1402
tp1403
Rp1404
aF1.7820620397167724
aF11.809134541839938
aa(lp1405
g90
ag105
ag4
(g8
S'\x1e\xdb\x1c(|}\xa0?'
p1406
tp1407
Rp1408
aF2.930248699357364
aF-8.187057001635267
aa(lp1409
g90
ag110
ag4
(g8
S'r8\xe3\xbag"\xc0?'
p1410
tp1411
Rp1412
aF1.4023437035117843
aF-9.150469535077463
aa(lp1413
g90
ag115
ag4
(g8
S'\x9c\xd4E\x91\xeb\xb5\xe4?'
p1414
tp1415
Rp1416
aF2.3352564243619964
aF-23.322863521414497
aa(lp1417
g90
ag120
ag4
(g8
S'\x98\x1b\x0f\x03G\xaa\xba?'
p1418
tp1419
Rp1420
aF2.5177355131647325
aF-14.918196637478019
aa(lp1421
g90
ag125
ag4
(g8
S'\xccN\x8e8_M\xc8?'
p1422
tp1423
Rp1424
aF2.142857190758983
aF-20.01126532510238
aa(lp1425
g90
ag130
ag4
(g8
S'\\\xe2\\\x89\xf0\x93\xcd?'
p1426
tp1427
Rp1428
aF1.784238829159401
aF-1.1735653630967562
aa(lp1429
g90
ag135
ag4
(g8
S'\xdd\xf5\xb5\x9c\x87\x9c\xb0?'
p1430
tp1431
Rp1432
aF2.97785178455333
aF-10.919561366358593
aa(lp1433
g90
ag140
ag4
(g8
S'DI\xca[\xc4\x07\xc3?'
p1434
tp1435
Rp1436
aF1.5188147058807564
aF-8.160741316198852
aa(lp1437
g90
ag145
ag4
(g8
S'\x18{[\xe5\x19\x19\xd9?'
p1438
tp1439
Rp1440
aF1.6426312593970445
aF9.10820594837098
aa(lp1441
g95
ag100
ag4
(g8
S'\xb2\xa94\xbe\xa8\xeb\xd3?'
p1442
tp1443
Rp1444
aF1.4930880542206957
aF28.540211983022004
aa(lp1445
g95
ag105
ag4
(g8
S'\x9eL"\x95\xb34\xa6?'
p1446
tp1447
Rp1448
aF2.7077378203422646
aF14.731907039984307
aa(lp1449
g95
ag110
ag4
(g8
S'\x8e\xd5\x07E\n\xbf\xda?'
p1450
tp1451
Rp1452
aF1.1661609085664453
aF4.17521280992203
aa(lp1453
g95
ag115
ag4
(g8
S'\xc0s\xb0ii\xa5\xb9?'
p1454
tp1455
Rp1456
aF3.1216879870914838
aF-22.574288250751934
aa(lp1457
g95
ag120
ag4
(g8
S'\x94\xf3]\x88e\x9d\xd7?'
p1458
tp1459
Rp1460
aF2.5199594705986583
aF1.2590013126169026
aa(lp1461
g95
ag125
ag4
(g8
S"\xf35'\\\xebU\xd6?"
p1462
tp1463
Rp1464
aF2.159149483902663
aF-6.5044866262983305
aa(lp1465
g95
ag130
ag4
(g8
S'\xb8\x87#\xb8X\xe1\xb2?'
p1466
tp1467
Rp1468
aF2.4958873287098267
aF-2.6150831996569437
aa(lp1469
g95
ag135
ag4
(g8
S'\xd8\x83\x9c\xd1\xec\x1c\xd1?'
p1470
tp1471
Rp1472
aF2.3774877611089
aF19.173626220016928
aa(lp1473
g95
ag140
ag4
(g8
S'\xde\x84\x98 B)\xd3?'
p1474
tp1475
Rp1476
aF1.5566172623164634
aF0.9354049287773591
aa(lp1477
g95
ag145
ag4
(g8
S'\x15\x0f\xce\xbf}\x9f\xe0?'
p1478
tp1479
Rp1480
aF1.7204843038103288
aF18.273968367810454
aa(lp1481
g100
ag105
ag4
(g8
S'\x8e>v\xd2\xb5\x00\xc8?'
p1482
tp1483
Rp1484
aF1.0895575567463367
aF3.2819780474001448
aa(lp1485
g100
ag110
ag4
(g8
S' \x14\xdb\xa7P\x8b\xb8?'
p1486
tp1487
Rp1488
aF0.764512025385783
aF-17.195608034107586
aa(lp1489
g100
ag115
ag4
(g8
S'\x07\xe8\\\xc9Qi\xe2?'
p1490
tp1491
Rp1492
aF1.1353741774820936
aF-29.05150429742332
aa(lp1493
g100
ag120
ag4
(g8
S'H\xba\xba\xda\x9e\x92\x93?'
p1494
tp1495
Rp1496
aF1.3739131892442114
aF-29.436078053893468
aa(lp1497
g100
ag125
ag4
(g8
S'*\x83G1\xd3\xcf\x99?'
p1498
tp1499
Rp1500
aF1.08230611352402
aF-27.52143227786766
aa(lp1501
g100
ag130
ag4
(g8
S'\xa95s\xa5Z\x9d\xe2?'
p1502
tp1503
Rp1504
aF0.5218300961753515
aF13.69420912795168
aa(lp1505
g100
ag135
ag4
(g8
S'\x91*\xee\x89\xd7\xcfr?'
p1506
tp1507
Rp1508
aF1.5293174287559115
aF-22.763445320350115
aa(lp1509
g100
ag140
ag4
(g8
S'\x14\x89&\xf1[\xf8\x85?'
p1510
tp1511
Rp1512
aF0.8047596287198987
aF-15.57964094965908
aa(lp1513
g100
ag145
ag4
(g8
S'\x17\xc1\x11f\xaaO\xb2?'
p1514
tp1515
Rp1516
aF1.002619197673354
aF-6.279078385276335
aa(lp1517
g105
ag110
ag4
(g8
S'g\xf5\xe8\xb9O\xd9\xe7?'
p1518
tp1519
Rp1520
aF0.2562335345594123
aF8.985466282160854
aa(lp1521
g105
ag115
ag4
(g8
S'\x80\xeb\x90\xe8\xf5\xce\xec?'
p1522
tp1523
Rp1524
aF0.5494351789622954
aF-0.9707697298721669
aa(lp1525
g105
ag120
ag4
(g8
S'p\xd7P\x1a\x04\xea\xe8?'
p1526
tp1527
Rp1528
aF0.556647017147054
aF11.464754579406872
aa(lp1529
g105
ag125
ag4
(g8
S'we\xe1.xe\xea?'
p1530
tp1531
Rp1532
aF0.49171483031657476
aF1.2955805097793736
aa(lp1533
g105
ag130
ag4
(g8
S'\x18\x02\x8ap\x81\xcb\xbf?'
p1534
tp1535
Rp1536
aF0.5656112687767539
aF6.579924798849948
aa(lp1537
g105
ag135
ag4
(g8
S'\x96s\xa4S\xf0\x87\xe2?'
p1538
tp1539
Rp1540
aF0.6923910963483098
aF18.10964084842101
aa(lp1541
g105
ag140
ag4
(g8
S'\x97\x9e\xf7\xe0nq\xe6?'
p1542
tp1543
Rp1544
aF0.33191221081045125
aF8.00298270228394
aa(lp1545
g105
ag145
ag4
(g8
S'h\t\x0f\xe8\xcc*\xed?'
p1546
tp1547
Rp1548
aF0.24935833777228544
aF33.59885783256553
aa(lp1549
g110
ag115
ag4
(g8
S"\xc3\xf56<'\xb7\xed?"
p1550
tp1551
Rp1552
aF1.3786697500862037
aF-0.8142603466907801
aa(lp1553
g110
ag120
ag4
(g8
S'\xd4\xc1b\xc9\x96\x81\xc8?'
p1554
tp1555
Rp1556
aF1.65608339112875
aF5.044297145845647
aa(lp1557
g110
ag125
ag4
(g8
S'\xa8y])|D\xe2?'
p1558
tp1559
Rp1560
aF1.2843474349129969
aF0.15412056086839243
aa(lp1561
g110
ag130
ag4
(g8
S'\x0c\xd1i\xb3\x0c\\\xe5?'
p1562
tp1563
Rp1564
aF0.5942594121806257
aF27.671742468374475
aa(lp1565
g110
ag135
ag4
(g8
S'i6\xc55\xe5\xe8\x96?'
p1566
tp1567
Rp1568
aF1.8255085224802063
aF16.071048416603475
aa(lp1569
g110
ag140
ag4
(g8
S'\xe8\xa3yg\x98\x05\xb5?'
p1570
tp1571
Rp1572
aF0.9905956885627913
aF4.095447077807485
aa(lp1573
g110
ag145
ag4
(g8
S'L#\xe4\x17\xc3&\xbe?'
p1574
tp1575
Rp1576
aF1.2687019305274871
aF17.356637943188915
aa(lp1577
g115
ag120
ag4
(g8
S'\x9c\xcd2x\xe4?\xb2?'
p1578
tp1579
Rp1580
aF0.8371573877902375
aF18.459938466777686
aa(lp1581
g115
ag125
ag4
(g8
S'\x80\x9d\x0e\x93\xb1\xb0\xbd?'
p1582
tp1583
Rp1584
aF0.6869319951431087
aF9.270820365070211
aa(lp1585
g115
ag130
ag4
(g8
S'\xd2E\x02\x9e\x95<\xd2?'
p1586
tp1587
Rp1588
aF0.6150455752743139
aF21.73641606273991
aa(lp1589
g115
ag135
ag4
(g8
S'\xacp\x07-\xb3\xe8\xc8?'
p1590
tp1591
Rp1592
aF0.759857327895852
aF36.42592485406946
aa(lp1593
g115
ag140
ag4
(g8
S'6?\xc2{s\xa4\xd2?'
p1594
tp1595
Rp1596
aF0.48385997917370627
aF12.697123895465865
aa(lp1597
g115
ag145
ag4
(g8
S'\xbf\x89\xdfI\x8a~\xda?'
p1598
tp1599
Rp1600
aF0.6330250672572526
aF27.918043357906264
aa(lp1601
g120
ag125
ag4
(g8
S',\x10\xa7X\xeae|?'
p1602
tp1603
Rp1604
aF0.7649348819290963
aF-3.259147703924789
aa(lp1605
g120
ag130
ag4
(g8
S'*R\x93\x7f\xe8\x87\xdf?'
p1606
tp1607
Rp1608
aF0.4312198059679888
aF22.455208851375538
aa(lp1609
g120
ag135
ag4
(g8
S'\xaf\xaf\x96@\x00M\xa8?'
p1610
tp1611
Rp1612
aF1.0195995803309663
aF14.402801635936555
aa(lp1613
g120
ag140
ag4
(g8
S'\x0f\xd0\xff4\xe9\x8bw?'
p1614
tp1615
Rp1616
aF0.5576010122922077
aF2.9866759253401085
aa(lp1617
g120
ag145
ag4
(g8
S'\xb0\x9e\xe2q\xe6\xd6\xbd?'
p1618
tp1619
Rp1620
aF0.7065197297665431
aF16.295453469104572
aa(lp1621
g125
ag130
ag4
(g8
S'\xab@Rx\xdag\xdd?'
p1622
tp1623
Rp1624
aF0.607637231374909
aF22.85516634354174
aa(lp1625
g125
ag135
ag4
(g8
S'\xdb\x05_*f\x80\xae?'
p1626
tp1627
Rp1628
aF1.271850105023905
aF20.746455625259614
aa(lp1629
g125
ag140
ag4
(g8
S'\x85MB\x82\xe7\xd1\xac?'
p1630
tp1631
Rp1632
aF0.699607799287253
aF6.3231388403400075
aa(lp1633
g125
ag145
ag4
(g8
S'L\xf6\x1b+af\xcd?'
p1634
tp1635
Rp1636
aF0.8835920631478302
aF20.616628075286982
aa(lp1637
g130
ag135
ag4
(g8
S'\xcew\xdc\xa9\xdc\x84\xe6?'
p1638
tp1639
Rp1640
aF0.5100534863683227
aF40.581203197168875
aa(lp1641
g130
ag140
ag4
(g8
S'\x81~\x93\xc5G\xa7\xea?'
p1642
tp1643
Rp1644
aF0.33108962301093325
aF15.073835243927416
aa(lp1645
g130
ag145
ag4
(g8
S'\xde\x88\xe1\xe2\x95\x92\xed?'
p1646
tp1647
Rp1648
aF0.24935949824061943
aF38.884565902731694
aa(lp1649
g135
ag140
ag4
(g8
S'\x14\xc1b\xb2\xde\x86\xb3?'
p1650
tp1651
Rp1652
aF0.46940603170905515
aF-0.056587628529484846
aa(lp1653
g135
ag145
ag4
(g8
S'\nK\xf0\x84\xb7+\xd4?'
p1654
tp1655
Rp1656
aF0.5474860578896499
aF15.389271936325287
aa(lp1657
g140
ag145
ag4
(g8
S':^\xcb\x89>T\xc2?'
p1658
tp1659
Rp1660
aF1.1929890152199367
aF14.676330343553246
aa.